; Function Attrs: nofree norecurse nosync nounwind memory(argmem: readwrite) uwtable
define internal void @bdof_fetch_samples_12(ptr noundef writeonly captures(none) %0, ptr noundef readonly captures(none) %1, i64 noundef %2, i32 noundef %3, i32 noundef %4, i32 noundef %5, i32 noundef %6) #2 {
  %8 = ashr i32 %3, 3
  %9 = ashr i32 %4, 3
  %10 = add nsw i32 %9, -1
  %11 = lshr i64 %2, 1
  %12 = sext i32 %8 to i64
  %13 = getelementptr i16, ptr %1, i64 %12
  %14 = getelementptr i8, ptr %13, i64 -2
  %15 = sext i32 %10 to i64
  %16 = mul nsw i64 %11, %15
  %17 = getelementptr inbounds i16, ptr %14, i64 %16
  %18 = getelementptr inbounds i8, ptr %0, i64 -258
  %19 = add i32 %5, 2
  %20 = icmp sgt i32 %5, -2
  br i1 %20, label %.lr.ph.preheader, label %._crit_edge

.lr.ph.preheader:                                 ; preds = %7
  %smax = tail call i32 @llvm.smax.i32(i32 %19, i32 1)
  %wide.trip.count = zext nneg i32 %smax to i64
  br label %.lr.ph

._crit_edge:                                      ; preds = %.lr.ph, %7
  %21 = getelementptr inbounds i8, ptr %0, i64 -2
  %22 = icmp sgt i32 %6, 0
  br i1 %22, label %.lr.ph48, label %.preheader

.lr.ph48:                                         ; preds = %._crit_edge
  %23 = add nsw i32 %5, 1
  %24 = sext i32 %23 to i64
  br label %31

.lr.ph:                                           ; preds = %.lr.ph.preheader, %.lr.ph
  %indvars.iv = phi i64 [ 0, %.lr.ph.preheader ], [ %indvars.iv.next, %.lr.ph ]
  %25 = getelementptr inbounds nuw i16, ptr %17, i64 %indvars.iv
  %26 = load i16, ptr %25, align 2, !tbaa !124
  %27 = shl i16 %26, 2
  %28 = getelementptr inbounds nuw i16, ptr %18, i64 %indvars.iv
  store i16 %27, ptr %28, align 2, !tbaa !124
  %indvars.iv.next = add nuw nsw i64 %indvars.iv, 1
  %exitcond.not = icmp eq i64 %indvars.iv.next, %wide.trip.count
  br i1 %exitcond.not, label %._crit_edge, label %.lr.ph, !llvm.loop !205

.preheader:                                       ; preds = %31, %._crit_edge
  %.040.lcssa = phi ptr [ %21, %._crit_edge ], [ %38, %31 ]
  %29 = phi ptr [ %17, %._crit_edge ], [ %.03946, %31 ]
  br i1 %20, label %.lr.ph51.preheader, label %._crit_edge52

.lr.ph51.preheader:                               ; preds = %.preheader
  %smax58 = tail call i32 @llvm.smax.i32(i32 %19, i32 1)
  %wide.trip.count59 = zext nneg i32 %smax58 to i64
  %30 = getelementptr inbounds nuw i16, ptr %29, i64 %11
  br label %.lr.ph51

31:                                               ; preds = %.lr.ph48, %31
  %.pn = phi ptr [ %17, %.lr.ph48 ], [ %.03946, %31 ]
  %.03745 = phi i32 [ 0, %.lr.ph48 ], [ %39, %31 ]
  %.04044 = phi ptr [ %21, %.lr.ph48 ], [ %38, %31 ]
  %.03946 = getelementptr inbounds nuw i16, ptr %.pn, i64 %11
  %32 = load i16, ptr %.03946, align 2, !tbaa !124
  %33 = shl i16 %32, 2
  store i16 %33, ptr %.04044, align 2, !tbaa !124
  %34 = getelementptr inbounds i16, ptr %.03946, i64 %24
  %35 = load i16, ptr %34, align 2, !tbaa !124
  %36 = shl i16 %35, 2
  %37 = getelementptr inbounds i16, ptr %.04044, i64 %24
  store i16 %36, ptr %37, align 2, !tbaa !124
  %38 = getelementptr inbounds nuw i8, ptr %.04044, i64 256
  %39 = add nuw nsw i32 %.03745, 1
  %exitcond54.not = icmp eq i32 %39, %6
  br i1 %exitcond54.not, label %.preheader, label %31, !llvm.loop !206

._crit_edge52:                                    ; preds = %.lr.ph51, %.preheader
  ret void

.lr.ph51:                                         ; preds = %.lr.ph51.preheader, %.lr.ph51
  %indvars.iv55 = phi i64 [ 0, %.lr.ph51.preheader ], [ %indvars.iv.next56, %.lr.ph51 ]
  %40 = getelementptr inbounds nuw i16, ptr %30, i64 %indvars.iv55
  %41 = load i16, ptr %40, align 2, !tbaa !124
  %42 = shl i16 %41, 2
  %43 = getelementptr inbounds nuw i16, ptr %.040.lcssa, i64 %indvars.iv55
  store i16 %42, ptr %43, align 2, !tbaa !124
  %indvars.iv.next56 = add nuw nsw i64 %indvars.iv55, 1
  %exitcond60.not = icmp eq i64 %indvars.iv.next56, %wide.trip.count59
  br i1 %exitcond60.not, label %._crit_edge52, label %.lr.ph51, !llvm.loop !207
}